target datalayout = "e-m:e-p270:32:32-p271:32:32-p272:64:64-i64:64-i128:128-f80:128-n8:16:32:64-S128"
target triple = "x86_64-pc-linux-gnu"

%struct._object = type { %union.anon, ptr }
%union.anon = type { i64 }
%struct._typeobject = type { %struct.PyVarObject, ptr, i64, i64, ptr, i64, ptr, ptr, ptr, ptr, ptr, ptr, ptr, ptr, ptr, ptr, ptr, ptr, ptr, i64, ptr, ptr, ptr, ptr, i64, ptr, ptr, ptr, ptr, ptr, ptr, ptr, ptr, ptr, i64, ptr, ptr, ptr, ptr, ptr, ptr, ptr, ptr, ptr, ptr, ptr, i32, ptr, ptr, i8, i16 }
%struct.PyVarObject = type { %struct._object, i64 }
%struct._ffi_type = type { i64, i16, i16, ptr }
%struct.anon = type { i32, i32 }
%struct.StgInfo = type { i32, i64, i64, i64, %struct._ffi_type, ptr, ptr, ptr, ptr, ptr, ptr, ptr, ptr, ptr, i32, ptr, i32, ptr }

@pyctype_type_spec = hidden global { ptr, i32, i32, i32, [4 x i8], ptr } { ptr @.str, i32 -160, i32 0, i32 17664, [4 x i8] zeroinitializer, ptr @ctype_type_slots }, align 8
@PyExc_TypeError = external global ptr, align 8
@.str.12 = private unnamed_addr constant [60 x i8] c"Exception ignored while calling ctypes traverse function %R\00", align 1
@PyType_Type = external global %struct._typeobject, align 8
@.str.13 = private unnamed_addr constant [33 x i8] c"expected a ctypes type, got '%N'\00", align 1

; Function Attrs: alwaysinline nounwind uwtable
define internal i32 @_Py_IsImmortal(ptr noundef %0) #4 {
  %2 = alloca ptr, align 8
  store ptr %0, ptr %2, align 8, !tbaa !7
  %3 = load ptr, ptr %2, align 8, !tbaa !7
  %4 = getelementptr inbounds nuw %struct._object, ptr %3, i32 0, i32 0
  %5 = getelementptr inbounds nuw %struct.anon, ptr %4, i32 0, i32 0
  %6 = load i32, ptr %5, align 8, !tbaa !20
  %7 = icmp slt i32 %6, 0
  %8 = zext i1 %7 to i32
  ret i32 %8
}

; Function Attrs: alwaysinline nounwind uwtable
define internal void @Py_DECREF(ptr noundef %0) #4 {
  %2 = alloca ptr, align 8
  store ptr %0, ptr %2, align 8, !tbaa !7
  %3 = load ptr, ptr %2, align 8, !tbaa !7
  %4 = call i32 @_Py_IsImmortal(ptr noundef %3)
  %5 = icmp ne i32 %4, 0
  br i1 %5, label %6, label %7

6:                                                ; preds = %1
  br label %16

7:                                                ; preds = %1
  %8 = load ptr, ptr %2, align 8, !tbaa !7
  %9 = getelementptr inbounds nuw %struct._object, ptr %8, i32 0, i32 0
  %10 = getelementptr inbounds nuw %struct.anon, ptr %9, i32 0, i32 0
  %11 = load i32, ptr %10, align 8, !tbaa !20
  %12 = add i32 %11, -1
  store i32 %12, ptr %10, align 8, !tbaa !20
  %13 = icmp eq i32 %12, 0
  br i1 %13, label %14, label %16

14:                                               ; preds = %7
  %15 = load ptr, ptr %2, align 8, !tbaa !7
  call void @_Py_Dealloc(ptr noundef %15)
  br label %16

16:                                               ; preds = %6, %14, %7
  ret void
}

; Function Attrs: inlinehint nounwind uwtable
define internal ptr @_Py_TYPE(ptr noundef %0) #2 {
  %2 = alloca ptr, align 8
  store ptr %0, ptr %2, align 8, !tbaa !7
  %3 = load ptr, ptr %2, align 8, !tbaa !7
  %4 = getelementptr inbounds nuw %struct._object, ptr %3, i32 0, i32 1
  %5 = load ptr, ptr %4, align 8, !tbaa !84
  ret ptr %5
}

; Function Attrs: inlinehint nounwind uwtable
define internal ptr @_PyStgInfo_FromType_NoState(ptr noundef %0) #2 {
  %2 = alloca ptr, align 8
  %3 = alloca ptr, align 8
  %4 = alloca ptr, align 8
  %5 = alloca i32, align 4
  %6 = alloca ptr, align 8
  store ptr %0, ptr %3, align 8, !tbaa !7
  call void @llvm.lifetime.start.p0(i64 8, ptr %4) #9
  %7 = load ptr, ptr %3, align 8, !tbaa !7
  %8 = call ptr @_Py_TYPE(ptr noundef %7)
  %9 = call i32 @PyType_GetBaseByToken(ptr noundef %8, ptr noundef @pyctype_type_spec, ptr noundef %4)
  %10 = icmp slt i32 %9, 0
  br i1 %10, label %11, label %12

11:                                               ; preds = %1
  store ptr null, ptr %2, align 8
  store i32 1, ptr %5, align 4
  br label %25

12:                                               ; preds = %1
  %13 = load ptr, ptr %4, align 8, !tbaa !50
  %14 = icmp eq ptr %13, null
  br i1 %14, label %15, label %19

15:                                               ; preds = %12
  %16 = load ptr, ptr @PyExc_TypeError, align 8, !tbaa !7
  %17 = load ptr, ptr %3, align 8, !tbaa !7
  %18 = call ptr (ptr, ptr, ...) @PyErr_Format(ptr noundef %16, ptr noundef @.str.13, ptr noundef %17)
  store ptr null, ptr %2, align 8
  store i32 1, ptr %5, align 4
  br label %25

19:                                               ; preds = %12
  call void @llvm.lifetime.start.p0(i64 8, ptr %6) #9
  %20 = load ptr, ptr %3, align 8, !tbaa !7
  %21 = load ptr, ptr %4, align 8, !tbaa !50
  %22 = call ptr @PyObject_GetTypeData(ptr noundef %20, ptr noundef %21)
  store ptr %22, ptr %6, align 8, !tbaa !3
  %23 = load ptr, ptr %4, align 8, !tbaa !50
  call void @Py_DECREF(ptr noundef %23)
  %24 = load ptr, ptr %6, align 8, !tbaa !3
  store ptr %24, ptr %2, align 8
  store i32 1, ptr %5, align 4
  call void @llvm.lifetime.end.p0(i64 8, ptr %6) #9
  br label %25

25:                                               ; preds = %19, %15, %11
  call void @llvm.lifetime.end.p0(i64 8, ptr %4) #9
  %26 = load ptr, ptr %2, align 8
  ret ptr %26
}

; Function Attrs: nounwind uwtable
define internal i32 @CType_Type_traverse(ptr noundef %0, ptr noundef %1, ptr noundef %2) #0 {
  %4 = alloca i32, align 4
  %5 = alloca ptr, align 8
  %6 = alloca ptr, align 8
  %7 = alloca ptr, align 8
  %8 = alloca ptr, align 8
  %9 = alloca i32, align 4
  %10 = alloca i32, align 4
  %11 = alloca i32, align 4
  %12 = alloca i32, align 4
  %13 = alloca i32, align 4
  %14 = alloca i32, align 4
  %15 = alloca i32, align 4
  %16 = alloca i32, align 4
  store ptr %0, ptr %5, align 8, !tbaa !7
  store ptr %1, ptr %6, align 8, !tbaa !3
  store ptr %2, ptr %7, align 8, !tbaa !3
  call void @llvm.lifetime.start.p0(i64 8, ptr %8) #9
  %17 = load ptr, ptr %5, align 8, !tbaa !7
  %18 = call ptr @_PyStgInfo_FromType_NoState(ptr noundef %17)
  store ptr %18, ptr %8, align 8, !tbaa !3
  %19 = load ptr, ptr %8, align 8, !tbaa !3
  %20 = icmp ne ptr %19, null
  br i1 %20, label %23, label %21

21:                                               ; preds = %3
  %22 = load ptr, ptr %5, align 8, !tbaa !7
  call void (ptr, ...) @PyErr_FormatUnraisable(ptr noundef @.str.12, ptr noundef %22)
  br label %23

23:                                               ; preds = %21, %3
  %24 = load ptr, ptr %8, align 8, !tbaa !3
  %25 = icmp ne ptr %24, null
  br i1 %25, label %26, label %165

26:                                               ; preds = %23
  br label %27

27:                                               ; preds = %26
  %28 = load ptr, ptr %8, align 8, !tbaa !3
  %29 = getelementptr inbounds nuw %struct.StgInfo, ptr %28, i32 0, i32 5
  %30 = load ptr, ptr %29, align 8, !tbaa !60
  %31 = icmp ne ptr %30, null
  br i1 %31, label %32, label %47

32:                                               ; preds = %27
  call void @llvm.lifetime.start.p0(i64 4, ptr %9) #9
  %33 = load ptr, ptr %6, align 8, !tbaa !3
  %34 = load ptr, ptr %8, align 8, !tbaa !3
  %35 = getelementptr inbounds nuw %struct.StgInfo, ptr %34, i32 0, i32 5
  %36 = load ptr, ptr %35, align 8, !tbaa !60
  %37 = load ptr, ptr %7, align 8, !tbaa !3
  %38 = call i32 %33(ptr noundef %36, ptr noundef %37)
  store i32 %38, ptr %9, align 4, !tbaa !16
  %39 = load i32, ptr %9, align 4, !tbaa !16
  %40 = icmp ne i32 %39, 0
  br i1 %40, label %41, label %43

41:                                               ; preds = %32
  %42 = load i32, ptr %9, align 4, !tbaa !16
  store i32 %42, ptr %4, align 4
  store i32 1, ptr %10, align 4
  br label %44

43:                                               ; preds = %32
  store i32 0, ptr %10, align 4
  br label %44

44:                                               ; preds = %43, %41
  call void @llvm.lifetime.end.p0(i64 4, ptr %9) #9
  %45 = load i32, ptr %10, align 4
  switch i32 %45, label %192 [
    i32 0, label %46
  ]

46:                                               ; preds = %44
  br label %47

47:                                               ; preds = %46, %27
  br label %48

48:                                               ; preds = %47
  br label %49

49:                                               ; preds = %48
  br label %50

50:                                               ; preds = %49
  %51 = load ptr, ptr %8, align 8, !tbaa !3
  %52 = getelementptr inbounds nuw %struct.StgInfo, ptr %51, i32 0, i32 9
  %53 = load ptr, ptr %52, align 8, !tbaa !86
  %54 = icmp ne ptr %53, null
  br i1 %54, label %55, label %70

55:                                               ; preds = %50
  call void @llvm.lifetime.start.p0(i64 4, ptr %11) #9
  %56 = load ptr, ptr %6, align 8, !tbaa !3
  %57 = load ptr, ptr %8, align 8, !tbaa !3
  %58 = getelementptr inbounds nuw %struct.StgInfo, ptr %57, i32 0, i32 9
  %59 = load ptr, ptr %58, align 8, !tbaa !86
  %60 = load ptr, ptr %7, align 8, !tbaa !3
  %61 = call i32 %56(ptr noundef %59, ptr noundef %60)
  store i32 %61, ptr %11, align 4, !tbaa !16
  %62 = load i32, ptr %11, align 4, !tbaa !16
  %63 = icmp ne i32 %62, 0
  br i1 %63, label %64, label %66

64:                                               ; preds = %55
  %65 = load i32, ptr %11, align 4, !tbaa !16
  store i32 %65, ptr %4, align 4
  store i32 1, ptr %10, align 4
  br label %67

66:                                               ; preds = %55
  store i32 0, ptr %10, align 4
  br label %67

67:                                               ; preds = %66, %64
  call void @llvm.lifetime.end.p0(i64 4, ptr %11) #9
  %68 = load i32, ptr %10, align 4
  switch i32 %68, label %192 [
    i32 0, label %69
  ]

69:                                               ; preds = %67
  br label %70

70:                                               ; preds = %69, %50
  br label %71

71:                                               ; preds = %70
  br label %72

72:                                               ; preds = %71
  br label %73

73:                                               ; preds = %72
  %74 = load ptr, ptr %8, align 8, !tbaa !3
  %75 = getelementptr inbounds nuw %struct.StgInfo, ptr %74, i32 0, i32 10
  %76 = load ptr, ptr %75, align 8, !tbaa !87
  %77 = icmp ne ptr %76, null
  br i1 %77, label %78, label %93

78:                                               ; preds = %73
  call void @llvm.lifetime.start.p0(i64 4, ptr %12) #9
  %79 = load ptr, ptr %6, align 8, !tbaa !3
  %80 = load ptr, ptr %8, align 8, !tbaa !3
  %81 = getelementptr inbounds nuw %struct.StgInfo, ptr %80, i32 0, i32 10
  %82 = load ptr, ptr %81, align 8, !tbaa !87
  %83 = load ptr, ptr %7, align 8, !tbaa !3
  %84 = call i32 %79(ptr noundef %82, ptr noundef %83)
  store i32 %84, ptr %12, align 4, !tbaa !16
  %85 = load i32, ptr %12, align 4, !tbaa !16
  %86 = icmp ne i32 %85, 0
  br i1 %86, label %87, label %89

87:                                               ; preds = %78
  %88 = load i32, ptr %12, align 4, !tbaa !16
  store i32 %88, ptr %4, align 4
  store i32 1, ptr %10, align 4
  br label %90

89:                                               ; preds = %78
  store i32 0, ptr %10, align 4
  br label %90

90:                                               ; preds = %89, %87
  call void @llvm.lifetime.end.p0(i64 4, ptr %12) #9
  %91 = load i32, ptr %10, align 4
  switch i32 %91, label %192 [
    i32 0, label %92
  ]

92:                                               ; preds = %90
  br label %93

93:                                               ; preds = %92, %73
  br label %94

94:                                               ; preds = %93
  br label %95

95:                                               ; preds = %94
  br label %96

96:                                               ; preds = %95
  %97 = load ptr, ptr %8, align 8, !tbaa !3
  %98 = getelementptr inbounds nuw %struct.StgInfo, ptr %97, i32 0, i32 11
  %99 = load ptr, ptr %98, align 8, !tbaa !88
  %100 = icmp ne ptr %99, null
  br i1 %100, label %101, label %116

101:                                              ; preds = %96
  call void @llvm.lifetime.start.p0(i64 4, ptr %13) #9
  %102 = load ptr, ptr %6, align 8, !tbaa !3
  %103 = load ptr, ptr %8, align 8, !tbaa !3
  %104 = getelementptr inbounds nuw %struct.StgInfo, ptr %103, i32 0, i32 11
  %105 = load ptr, ptr %104, align 8, !tbaa !88
  %106 = load ptr, ptr %7, align 8, !tbaa !3
  %107 = call i32 %102(ptr noundef %105, ptr noundef %106)
  store i32 %107, ptr %13, align 4, !tbaa !16
  %108 = load i32, ptr %13, align 4, !tbaa !16
  %109 = icmp ne i32 %108, 0
  br i1 %109, label %110, label %112

110:                                              ; preds = %101
  %111 = load i32, ptr %13, align 4, !tbaa !16
  store i32 %111, ptr %4, align 4
  store i32 1, ptr %10, align 4
  br label %113

112:                                              ; preds = %101
  store i32 0, ptr %10, align 4
  br label %113

113:                                              ; preds = %112, %110
  call void @llvm.lifetime.end.p0(i64 4, ptr %13) #9
  %114 = load i32, ptr %10, align 4
  switch i32 %114, label %192 [
    i32 0, label %115
  ]

115:                                              ; preds = %113
  br label %116

116:                                              ; preds = %115, %96
  br label %117

117:                                              ; preds = %116
  br label %118

118:                                              ; preds = %117
  br label %119

119:                                              ; preds = %118
  %120 = load ptr, ptr %8, align 8, !tbaa !3
  %121 = getelementptr inbounds nuw %struct.StgInfo, ptr %120, i32 0, i32 12
  %122 = load ptr, ptr %121, align 8, !tbaa !89
  %123 = icmp ne ptr %122, null
  br i1 %123, label %124, label %139

124:                                              ; preds = %119
  call void @llvm.lifetime.start.p0(i64 4, ptr %14) #9
  %125 = load ptr, ptr %6, align 8, !tbaa !3
  %126 = load ptr, ptr %8, align 8, !tbaa !3
  %127 = getelementptr inbounds nuw %struct.StgInfo, ptr %126, i32 0, i32 12
  %128 = load ptr, ptr %127, align 8, !tbaa !89
  %129 = load ptr, ptr %7, align 8, !tbaa !3
  %130 = call i32 %125(ptr noundef %128, ptr noundef %129)
  store i32 %130, ptr %14, align 4, !tbaa !16
  %131 = load i32, ptr %14, align 4, !tbaa !16
  %132 = icmp ne i32 %131, 0
  br i1 %132, label %133, label %135

133:                                              ; preds = %124
  %134 = load i32, ptr %14, align 4, !tbaa !16
  store i32 %134, ptr %4, align 4
  store i32 1, ptr %10, align 4
  br label %136

135:                                              ; preds = %124
  store i32 0, ptr %10, align 4
  br label %136

136:                                              ; preds = %135, %133
  call void @llvm.lifetime.end.p0(i64 4, ptr %14) #9
  %137 = load i32, ptr %10, align 4
  switch i32 %137, label %192 [
    i32 0, label %138
  ]

138:                                              ; preds = %136
  br label %139

139:                                              ; preds = %138, %119
  br label %140

140:                                              ; preds = %139
  br label %141

141:                                              ; preds = %140
  br label %142

142:                                              ; preds = %141
  %143 = load ptr, ptr %8, align 8, !tbaa !3
  %144 = getelementptr inbounds nuw %struct.StgInfo, ptr %143, i32 0, i32 13
  %145 = load ptr, ptr %144, align 8, !tbaa !90
  %146 = icmp ne ptr %145, null
  br i1 %146, label %147, label %162

147:                                              ; preds = %142
  call void @llvm.lifetime.start.p0(i64 4, ptr %15) #9
  %148 = load ptr, ptr %6, align 8, !tbaa !3
  %149 = load ptr, ptr %8, align 8, !tbaa !3
  %150 = getelementptr inbounds nuw %struct.StgInfo, ptr %149, i32 0, i32 13
  %151 = load ptr, ptr %150, align 8, !tbaa !90
  %152 = load ptr, ptr %7, align 8, !tbaa !3
  %153 = call i32 %148(ptr noundef %151, ptr noundef %152)
  store i32 %153, ptr %15, align 4, !tbaa !16
  %154 = load i32, ptr %15, align 4, !tbaa !16
  %155 = icmp ne i32 %154, 0
  br i1 %155, label %156, label %158

156:                                              ; preds = %147
  %157 = load i32, ptr %15, align 4, !tbaa !16
  store i32 %157, ptr %4, align 4
  store i32 1, ptr %10, align 4
  br label %159

158:                                              ; preds = %147
  store i32 0, ptr %10, align 4
  br label %159

159:                                              ; preds = %158, %156
  call void @llvm.lifetime.end.p0(i64 4, ptr %15) #9
  %160 = load i32, ptr %10, align 4
  switch i32 %160, label %192 [
    i32 0, label %161
  ]

161:                                              ; preds = %159
  br label %162

162:                                              ; preds = %161, %142
  br label %163

163:                                              ; preds = %162
  br label %164

164:                                              ; preds = %163
  br label %165

165:                                              ; preds = %164, %23
  br label %166

166:                                              ; preds = %165
  %167 = load ptr, ptr %5, align 8, !tbaa !7
  %168 = call ptr @_Py_TYPE(ptr noundef %167)
  %169 = icmp ne ptr %168, null
  br i1 %169, label %170, label %184

170:                                              ; preds = %166
  call void @llvm.lifetime.start.p0(i64 4, ptr %16) #9
  %171 = load ptr, ptr %6, align 8, !tbaa !3
  %172 = load ptr, ptr %5, align 8, !tbaa !7
  %173 = call ptr @_Py_TYPE(ptr noundef %172)
  %174 = load ptr, ptr %7, align 8, !tbaa !3
  %175 = call i32 %171(ptr noundef %173, ptr noundef %174)
  store i32 %175, ptr %16, align 4, !tbaa !16
  %176 = load i32, ptr %16, align 4, !tbaa !16
  %177 = icmp ne i32 %176, 0
  br i1 %177, label %178, label %180

178:                                              ; preds = %170
  %179 = load i32, ptr %16, align 4, !tbaa !16
  store i32 %179, ptr %4, align 4
  store i32 1, ptr %10, align 4
  br label %181

180:                                              ; preds = %170
  store i32 0, ptr %10, align 4
  br label %181

181:                                              ; preds = %180, %178
  call void @llvm.lifetime.end.p0(i64 4, ptr %16) #9
  %182 = load i32, ptr %10, align 4
  switch i32 %182, label %192 [
    i32 0, label %183
  ]

183:                                              ; preds = %181
  br label %184

184:                                              ; preds = %183, %166
  br label %185

185:                                              ; preds = %184
  br label %186

186:                                              ; preds = %185
  %187 = load ptr, ptr getelementptr inbounds nuw (%struct._typeobject, ptr @PyType_Type, i32 0, i32 21), align 8, !tbaa !91
  %188 = load ptr, ptr %5, align 8, !tbaa !7
  %189 = load ptr, ptr %6, align 8, !tbaa !3
  %190 = load ptr, ptr %7, align 8, !tbaa !3
  %191 = call i32 %187(ptr noundef %188, ptr noundef %189, ptr noundef %190)
  store i32 %191, ptr %4, align 4
  store i32 1, ptr %10, align 4
  br label %192

192:                                              ; preds = %186, %181, %159, %136, %113, %90, %67, %44
  call void @llvm.lifetime.end.p0(i64 8, ptr %8) #9
  %193 = load i32, ptr %4, align 4
  ret i32 %193
}