; Function Attrs: nounwind uwtable
define internal i32 @CType_Type_traverse(ptr noundef %0, ptr noundef %1, ptr noundef %2) #0 {
  %4 = alloca ptr, align 8
  call void @llvm.lifetime.start.p0(i64 8, ptr nonnull %4) #17
  %5 = getelementptr i8, ptr %0, i64 8
  %.val.i = load ptr, ptr %5, align 8, !tbaa !10
  %6 = call i32 @PyType_GetBaseByToken(ptr noundef %.val.i, ptr noundef nonnull @pyctype_type_spec, ptr noundef nonnull %4) #17
  %7 = icmp slt i32 %6, 0
  br i1 %7, label %_PyStgInfo_FromType_NoState.exit.thread, label %8

8:                                                ; preds = %3
  %9 = load ptr, ptr %4, align 8, !tbaa !82
  %10 = icmp eq ptr %9, null
  br i1 %10, label %11, label %14

11:                                               ; preds = %8
  %12 = load ptr, ptr @PyExc_TypeError, align 8, !tbaa !27
  %13 = call ptr (ptr, ptr, ...) @PyErr_Format(ptr noundef %12, ptr noundef nonnull @.str.13, ptr noundef nonnull %0) #17
  br label %_PyStgInfo_FromType_NoState.exit.thread

14:                                               ; preds = %8
  %15 = call ptr @PyObject_GetTypeData(ptr noundef nonnull %0, ptr noundef nonnull %9) #17
  %16 = load ptr, ptr %4, align 8, !tbaa !82
  %17 = load i32, ptr %16, align 8, !tbaa !23
  %.not.i.i = icmp sgt i32 %17, -1
  br i1 %.not.i.i, label %18, label %_PyStgInfo_FromType_NoState.exit

18:                                               ; preds = %14
  %19 = add nsw i32 %17, -1
  store i32 %19, ptr %16, align 8, !tbaa !23
  %20 = icmp eq i32 %19, 0
  br i1 %20, label %21, label %_PyStgInfo_FromType_NoState.exit

21:                                               ; preds = %18
  call void @_Py_Dealloc(ptr noundef nonnull %16) #17
  br label %_PyStgInfo_FromType_NoState.exit

_PyStgInfo_FromType_NoState.exit.thread:          ; preds = %11, %3
  call void @llvm.lifetime.end.p0(i64 8, ptr nonnull %4) #17
  br label %22

_PyStgInfo_FromType_NoState.exit:                 ; preds = %14, %18, %21
  call void @llvm.lifetime.end.p0(i64 8, ptr nonnull %4) #17
  %.not = icmp eq ptr %15, null
  br i1 %.not, label %22, label %.critedge

22:                                               ; preds = %_PyStgInfo_FromType_NoState.exit.thread, %_PyStgInfo_FromType_NoState.exit
  call void (ptr, ...) @PyErr_FormatUnraisable(ptr noundef nonnull @.str.12, ptr noundef nonnull %0) #17
  br label %52

.critedge:                                        ; preds = %_PyStgInfo_FromType_NoState.exit
  %23 = getelementptr inbounds nuw i8, ptr %15, i64 56
  %24 = load ptr, ptr %23, align 8, !tbaa !59
  %.not81 = icmp eq ptr %24, null
  br i1 %.not81, label %27, label %25

25:                                               ; preds = %.critedge
  %26 = call i32 %1(ptr noundef nonnull %24, ptr noundef %2) #17
  %.not82 = icmp eq i32 %26, 0
  br i1 %.not82, label %27, label %58

27:                                               ; preds = %.critedge, %25
  %28 = getelementptr inbounds nuw i8, ptr %15, i64 88
  %29 = load ptr, ptr %28, align 8, !tbaa !83
  %.not83 = icmp eq ptr %29, null
  br i1 %.not83, label %32, label %30

30:                                               ; preds = %27
  %31 = call i32 %1(ptr noundef nonnull %29, ptr noundef %2) #17
  %.not84 = icmp eq i32 %31, 0
  br i1 %.not84, label %32, label %58

32:                                               ; preds = %27, %30
  %33 = getelementptr inbounds nuw i8, ptr %15, i64 96
  %34 = load ptr, ptr %33, align 8, !tbaa !84
  %.not85 = icmp eq ptr %34, null
  br i1 %.not85, label %37, label %35

35:                                               ; preds = %32
  %36 = call i32 %1(ptr noundef nonnull %34, ptr noundef %2) #17
  %.not86 = icmp eq i32 %36, 0
  br i1 %.not86, label %37, label %58

37:                                               ; preds = %32, %35
  %38 = getelementptr inbounds nuw i8, ptr %15, i64 104
  %39 = load ptr, ptr %38, align 8, !tbaa !85
  %.not87 = icmp eq ptr %39, null
  br i1 %.not87, label %42, label %40

40:                                               ; preds = %37
  %41 = call i32 %1(ptr noundef nonnull %39, ptr noundef %2) #17
  %.not88 = icmp eq i32 %41, 0
  br i1 %.not88, label %42, label %58

42:                                               ; preds = %37, %40
  %43 = getelementptr inbounds nuw i8, ptr %15, i64 112
  %44 = load ptr, ptr %43, align 8, !tbaa !86
  %.not89 = icmp eq ptr %44, null
  br i1 %.not89, label %47, label %45

45:                                               ; preds = %42
  %46 = call i32 %1(ptr noundef nonnull %44, ptr noundef %2) #17
  %.not90 = icmp eq i32 %46, 0
  br i1 %.not90, label %47, label %58

47:                                               ; preds = %42, %45
  %48 = getelementptr inbounds nuw i8, ptr %15, i64 120
  %49 = load ptr, ptr %48, align 8, !tbaa !87
  %.not91 = icmp eq ptr %49, null
  br i1 %.not91, label %52, label %50

50:                                               ; preds = %47
  %51 = call i32 %1(ptr noundef nonnull %49, ptr noundef %2) #17
  %.not92 = icmp eq i32 %51, 0
  br i1 %.not92, label %52, label %58

52:                                               ; preds = %22, %50, %47
  %.val95 = load ptr, ptr %5, align 8, !tbaa !10
  %.not93 = icmp eq ptr %.val95, null
  br i1 %.not93, label %55, label %53

53:                                               ; preds = %52
  %54 = call i32 %1(ptr noundef nonnull %.val95, ptr noundef %2) #17
  %.not94 = icmp eq i32 %54, 0
  br i1 %.not94, label %55, label %58

55:                                               ; preds = %53, %52
  %56 = load ptr, ptr getelementptr inbounds nuw (i8, ptr @PyType_Type, i64 184), align 8, !tbaa !88
  %57 = call i32 %56(ptr noundef nonnull %0, ptr noundef %1, ptr noundef %2) #17
  br label %58

58:                                               ; preds = %25, %30, %35, %40, %45, %50, %53, %55
  %.1 = phi i32 [ %57, %55 ], [ %54, %53 ], [ %51, %50 ], [ %46, %45 ], [ %41, %40 ], [ %36, %35 ], [ %31, %30 ], [ %26, %25 ]
  ret i32 %.1
}